(lp0
(S'dubai'
p1
S'india'
p2
tp3
a(S'namo'
p4
S'modi'
p5
tp6
a(g1
S'speech'
p7
tp8
a(S'cricket'
p9
S'stadium'
p10
tp11
a(S'nation'
p12
S'country'
p13
tp14
a(g2
S'pakistan'
p15
tp16
a(S'mosque'
p17
S'temple'
p18
tp19
a(S'prince'
p20
S'leader'
p21
tp22
a(S'crowd'
p23
S'people'
p24
tp25
a(S'minister'
p26
g9
tp27
a(S'congress'
p28
S'love'
p29
tp30
a(S'terrorism'
p31
g29
tp32
a(g12
S'land'
p33
tp34
a.